target datalayout = "e-m:e-p270:32:32-p271:32:32-p272:64:64-i64:64-i128:128-f80:128-n8:16:32:64-S128"
target triple = "x86_64-pc-linux-gnu"

%struct.gmac_data_st = type { ptr, ptr, %struct.PROV_CIPHER }
%struct.PROV_CIPHER = type { ptr, ptr, ptr }
%struct.ossl_param_st = type { ptr, i32, ptr, i64, i64 }

@.str.1 = private unnamed_addr constant [4 x i8] c"tag\00", align 1

; Function Attrs: nounwind uwtable
define internal i64 @gmac_size() #0 {
  ret i64 16
}

; Function Attrs: nounwind uwtable
define internal i32 @gmac_final(ptr noundef %0, ptr noundef %1, ptr noundef %2, i64 noundef %3) #0 {
  %5 = alloca i32, align 4
  %6 = alloca ptr, align 8
  %7 = alloca ptr, align 8
  %8 = alloca ptr, align 8
  %9 = alloca i64, align 8
  %10 = alloca [2 x %struct.ossl_param_st], align 16
  %11 = alloca ptr, align 8
  %12 = alloca i32, align 4
  %13 = alloca i32, align 4
  %14 = alloca %struct.ossl_param_st, align 8
  store ptr %0, ptr %6, align 8, !tbaa !3
  store ptr %1, ptr %7, align 8, !tbaa !16
  store ptr %2, ptr %8, align 8, !tbaa !25
  store i64 %3, ptr %9, align 8, !tbaa !18
  call void @llvm.lifetime.start.p0(i64 80, ptr %10) #6
  call void @llvm.memset.p0.i64(ptr align 16 %10, i8 0, i64 80, i1 false)
  call void @llvm.lifetime.start.p0(i64 8, ptr %11) #6
  %15 = load ptr, ptr %6, align 8, !tbaa !3
  store ptr %15, ptr %11, align 8, !tbaa !7
  call void @llvm.lifetime.start.p0(i64 4, ptr %12) #6
  store i32 0, ptr %12, align 4, !tbaa !27
  %16 = call i32 @ossl_prov_is_running()
  %17 = icmp ne i32 %16, 0
  br i1 %17, label %19, label %18

18:                                               ; preds = %4
  store i32 0, ptr %5, align 4
  store i32 1, ptr %13, align 4
  br label %45

19:                                               ; preds = %4
  %20 = load ptr, ptr %11, align 8, !tbaa !7
  %21 = getelementptr inbounds nuw %struct.gmac_data_st, ptr %20, i32 0, i32 1
  %22 = load ptr, ptr %21, align 8, !tbaa !9
  %23 = load ptr, ptr %7, align 8, !tbaa !16
  %24 = call i32 @EVP_EncryptFinal_ex(ptr noundef %22, ptr noundef %23, ptr noundef %12)
  %25 = icmp ne i32 %24, 0
  br i1 %25, label %27, label %26

26:                                               ; preds = %19
  store i32 0, ptr %5, align 4
  store i32 1, ptr %13, align 4
  br label %45

27:                                               ; preds = %19
  %28 = call i64 @gmac_size()
  %29 = trunc i64 %28 to i32
  store i32 %29, ptr %12, align 4, !tbaa !27
  %30 = getelementptr inbounds [2 x %struct.ossl_param_st], ptr %10, i64 0, i64 0
  call void @llvm.lifetime.start.p0(i64 40, ptr %14) #6
  %31 = load ptr, ptr %7, align 8, !tbaa !16
  %32 = load i32, ptr %12, align 4, !tbaa !27
  %33 = sext i32 %32 to i64
  call void @OSSL_PARAM_construct_octet_string(ptr dead_on_unwind writable sret(%struct.ossl_param_st) align 8 %14, ptr noundef @.str.1, ptr noundef %31, i64 noundef %33)
  call void @llvm.memcpy.p0.p0.i64(ptr align 16 %30, ptr align 8 %14, i64 40, i1 false), !tbaa.struct !29
  call void @llvm.lifetime.end.p0(i64 40, ptr %14) #6
  %34 = load ptr, ptr %11, align 8, !tbaa !7
  %35 = getelementptr inbounds nuw %struct.gmac_data_st, ptr %34, i32 0, i32 1
  %36 = load ptr, ptr %35, align 8, !tbaa !9
  %37 = getelementptr inbounds [2 x %struct.ossl_param_st], ptr %10, i64 0, i64 0
  %38 = call i32 @EVP_CIPHER_CTX_get_params(ptr noundef %36, ptr noundef %37)
  %39 = icmp ne i32 %38, 0
  br i1 %39, label %41, label %40

40:                                               ; preds = %27
  store i32 0, ptr %5, align 4
  store i32 1, ptr %13, align 4
  br label %45

41:                                               ; preds = %27
  %42 = load i32, ptr %12, align 4, !tbaa !27
  %43 = sext i32 %42 to i64
  %44 = load ptr, ptr %8, align 8, !tbaa !25
  store i64 %43, ptr %44, align 8, !tbaa !18
  store i32 1, ptr %5, align 4
  store i32 1, ptr %13, align 4
  br label %45

45:                                               ; preds = %41, %40, %26, %18
  call void @llvm.lifetime.end.p0(i64 4, ptr %12) #6
  call void @llvm.lifetime.end.p0(i64 8, ptr %11) #6
  call void @llvm.lifetime.end.p0(i64 80, ptr %10) #6
  %46 = load i32, ptr %5, align 4
  ret i32 %46
}