; Function Attrs: nounwind uwtable
define internal range(i32 0, 2) i32 @gmac_final(ptr noundef readonly captures(none) %0, ptr noundef %1, ptr noundef writeonly captures(none) %2, i64 %3) #0 {
  %5 = alloca [2 x %struct.ossl_param_st], align 16
  %6 = alloca i32, align 4
  call void @llvm.lifetime.start.p0(i64 80, ptr nonnull %5) #5
  call void @llvm.memset.p0.i64(ptr noundef nonnull align 16 dereferenceable(80) %5, i8 0, i64 80, i1 false)
  call void @llvm.lifetime.start.p0(i64 4, ptr nonnull %6) #5
  store i32 0, ptr %6, align 4, !tbaa !15
  %7 = tail call i32 @ossl_prov_is_running() #5
  %.not = icmp eq i32 %7, 0
  br i1 %.not, label %18, label %8

8:                                                ; preds = %4
  %9 = getelementptr inbounds nuw i8, ptr %0, i64 8
  %10 = load ptr, ptr %9, align 8, !tbaa !3
  %11 = call i32 @EVP_EncryptFinal_ex(ptr noundef %10, ptr noundef %1, ptr noundef nonnull %6) #5
  %.not6 = icmp eq i32 %11, 0
  br i1 %.not6, label %18, label %12

12:                                               ; preds = %8
  store i32 16, ptr %6, align 4, !tbaa !15
  call void @OSSL_PARAM_construct_octet_string(ptr dead_on_unwind nonnull writable sret(%struct.ossl_param_st) align 8 %5, ptr noundef nonnull @.str.1, ptr noundef %1, i64 noundef 16) #5
  %13 = load ptr, ptr %9, align 8, !tbaa !3
  %14 = call i32 @EVP_CIPHER_CTX_get_params(ptr noundef %13, ptr noundef nonnull %5) #5
  %.not7 = icmp eq i32 %14, 0
  br i1 %.not7, label %18, label %15

15:                                               ; preds = %12
  %16 = load i32, ptr %6, align 4, !tbaa !15
  %17 = sext i32 %16 to i64
  store i64 %17, ptr %2, align 8, !tbaa !17
  br label %18

18:                                               ; preds = %12, %8, %4, %15
  %.0 = phi i32 [ 1, %15 ], [ 0, %4 ], [ 0, %8 ], [ 0, %12 ]
  call void @llvm.lifetime.end.p0(i64 4, ptr nonnull %6) #5
  call void @llvm.lifetime.end.p0(i64 80, ptr nonnull %5) #5
  ret i32 %.0
}